; Function Attrs: mustprogress nofree norecurse nosync nounwind willreturn memory(argmem: readwrite) uwtable
define internal noundef i32 @equirect_to_xyz(ptr noundef readonly captures(none) %0, i32 noundef %1, i32 noundef %2, i32 noundef %3, i32 noundef %4, ptr noundef writeonly captures(none) initializes((0, 12)) %5) #0 {
  %7 = sitofp i32 %3 to float
  %8 = sitofp i32 %1 to float
  %9 = tail call nsz float @llvm.fmuladd.f32(float %8, float 2.000000e+00, float 1.000000e+00)
  %10 = fdiv nsz float %9, %7
  %11 = fadd nsz float %10, -1.000000e+00
  %12 = getelementptr inbounds nuw i8, ptr %0, i64 284
  %13 = load float, ptr %12, align 4, !tbaa !49
  %14 = fmul nsz float %11, %13
  %15 = sitofp i32 %4 to float
  %16 = sitofp i32 %2 to float
  %17 = tail call nsz float @llvm.fmuladd.f32(float %16, float 2.000000e+00, float 1.000000e+00)
  %18 = fdiv nsz float %17, %15
  %19 = fadd nsz float %18, -1.000000e+00
  %20 = getelementptr inbounds nuw i8, ptr %0, i64 288
  %21 = load float, ptr %20, align 4, !tbaa !49
  %22 = fmul nsz float %19, %21
  %23 = tail call nsz float @llvm.sin.f32(float %14)
  %24 = tail call nsz float @llvm.cos.f32(float %14)
  %25 = tail call nsz float @llvm.sin.f32(float %22)
  %26 = tail call nsz float @llvm.cos.f32(float %22)
  %27 = fmul nsz float %23, %26
  store float %27, ptr %5, align 4, !tbaa !49
  %28 = getelementptr inbounds nuw i8, ptr %5, i64 4
  store float %25, ptr %28, align 4, !tbaa !49
  %29 = fmul nsz float %24, %26
  %30 = getelementptr inbounds nuw i8, ptr %5, i64 8
  store float %29, ptr %30, align 4, !tbaa !49
  ret i32 1
}